Certificate:
    Data:
        Version: 3 (0x2)
        Serial Number: 788 (0x314)
        Signature Algorithm: sha256WithRSAEncryption
        Issuer: C=IT, O=IGI, CN=Test CA
        Validity
            Not Before: Mar  2 16:20:13 2018 GMT
            Not After : Feb 28 16:20:13 2028 GMT
        Subject: C=IT, O=IGI, CN=nginx-voms.example
        Subject Public Key Info:
            Public Key Algorithm: rsaEncryption
            RSA Public Key: (2048 bit)
                Modulus (2048 bit):
                    00:b0:40:e2:d8:57:f2:36:5b:8d:a4:0a:b0:8a:c2:
                    15:44:3d:3a:a3:c5:3a:a6:86:76:7a:ce:2c:93:5c:
                    7a:b2:ac:42:2d:e7:4f:20:fe:65:fa:ec:c7:84:3d:
                    78:2b:31:58:11:c6:04:3f:5e:f2:9b:c8:c1:0a:9c:
                    30:14:74:64:ae:23:0c:8a:4d:c6:ab:2a:9a:24:b5:
                    8b:89:c6:5d:0c:72:e2:12:ec:06:e6:7f:54:80:8b:
                    2a:a1:2a:0e:2e:96:ee:0d:af:6e:fd:57:f2:48:34:
                    a7:6b:8f:c0:c9:39:4c:83:24:96:75:94:be:b7:1c:
                    6c:bb:e8:c8:00:43:46:ef:8d:d7:1c:e6:79:d7:a8:
                    20:4f:66:65:6c:c5:4e:51:c7:b3:dc:39:43:84:65:
                    18:14:57:a4:37:55:8c:5f:5b:63:b6:20:7e:bb:b6:
                    c3:99:4f:41:fa:87:3a:73:ed:34:91:c5:a8:3b:50:
                    15:2d:de:8e:76:ab:87:06:cc:5b:0c:44:8d:30:24:
                    6f:2d:6e:a7:b0:97:7c:5d:50:52:6b:66:3b:8f:f8:
                    2e:41:c4:71:ad:52:14:07:c2:35:57:4e:64:d6:d2:
                    9f:46:d3:d4:28:c1:15:3b:bb:ff:b1:73:9d:d0:1b:
                    7e:81:9c:50:48:55:c1:58:63:a8:25:12:4e:1c:aa:
                    90:a1
                Exponent: 65537 (0x10001)
        X509v3 extensions:
            X509v3 Basic Constraints: critical
                CA:FALSE
            X509v3 Subject Key Identifier: 
                2F:BA:E2:77:B3:3E:47:82:3B:5C:8C:A1:13:7A:4D:59:50:4D:8C:FD
            X509v3 Key Usage: critical
                Digital Signature, Non Repudiation, Key Encipherment
            X509v3 Extended Key Usage: 
                TLS Web Server Authentication, TLS Web Client Authentication, Microsoft Server Gated Crypto, Netscape Server Gated Crypto, E-mail Protection
            X509v3 Authority Key Identifier: 
                keyid:91:77:36:7B:2E:B4:69:F3:27:EA:B7:F6:08:8B:4A:23:A2:11:49:C6

            X509v3 Subject Alternative Name: 
                DNS:nginx-voms.example
    Signature Algorithm: sha256WithRSAEncryption
        4f:13:10:00:61:f5:76:3b:2d:43:ab:89:55:4c:a5:b3:16:84:
        dd:bf:18:6d:f3:4a:b3:65:32:0a:fa:14:aa:5e:61:45:05:fa:
        f8:35:1e:ad:b9:ff:3e:70:be:94:99:3c:04:28:59:4d:12:88:
        5f:e4:2a:e5:bc:eb:c7:59:49:59:b8:f7:79:a3:2f:ec:99:af:
        eb:f9:05:5e:68:14:fb:bb:35:a3:3e:d7:1b:55:c2:91:a5:cc:
        b5:88:15:0c:36:aa:25:e8:76:bc:e5:b0:b7:a8:b4:af:7b:c9:
        8a:52:ae:34:07:4e:18:5a:e2:83:21:bf:10:fe:8c:91:1f:88:
        b0:0e:60:ea:8a:40:df:2e:d5:0e:70:2b:07:95:d5:00:02:3b:
        be:b6:22:ff:a2:30:5e:52:83:7b:b9:44:ce:56:be:de:d0:55:
        35:35:e7:3f:45:1a:ad:93:42:65:84:2d:d4:86:b6:5c:7e:06:
        e8:76:87:2e:2e:e3:fa:d6:65:1e:00:7a:a4:71:be:c8:4a:2f:
        8a:06:bf:15:02:68:53:99:44:ce:45:8e:d0:e9:5d:76:3f:93:
        e9:57:91:2c:af:56:ce:a4:20:88:5d:fc:49:44:cc:78:d6:4e:
        0e:e3:8e:1b:f7:81:9e:eb:15:26:ba:97:f6:c3:ca:6f:3f:5f:
        3d:23:a0:fd
-----BEGIN CERTIFICATE-----
MIIDojCCAoqgAwIBAgICAxQwDQYJKoZIhvcNAQELBQAwLTELMAkGA1UEBhMCSVQx
DDAKBgNVBAoMA0lHSTEQMA4GA1UEAwwHVGVzdCBDQTAeFw0xODAzMDIxNjIwMTNa
Fw0yODAyMjgxNjIwMTNaMDgxCzAJBgNVBAYTAklUMQwwCgYDVQQKDANJR0kxGzAZ
BgNVBAMMEm5naW54LXZvbXMuZXhhbXBsZTCCASIwDQYJKoZIhvcNAQEBBQADggEP
ADCCAQoCggEBALBA4thX8jZbjaQKsIrCFUQ9OqPFOqaGdnrOLJNcerKsQi3nTyD+
Zfrsx4Q9eCsxWBHGBD9e8pvIwQqcMBR0ZK4jDIpNxqsqmiS1i4nGXQxy4hLsBuZ/
VICLKqEqDi6W7g2vbv1X8kg0p2uPwMk5TIMklnWUvrccbLvoyABDRu+N1xzmedeo
IE9mZWzFTlHHs9w5Q4RlGBRXpDdVjF9bY7Ygfru2w5lPQfqHOnPtNJHFqDtQFS3e
jnarhwbMWwxEjTAkby1up7CXfF1QUmtmO4/4LkHEca1SFAfCNVdOZNbSn0bT1CjB
FTu7/7FzndAbfoGcUEhVwVhjqCUSThyqkKECAwEAAaOBwDCBvTAMBgNVHRMBAf8E
AjAAMB0GA1UdDgQWBBQvuuJ3sz5HgjtcjKETek1ZUE2M/TAOBgNVHQ8BAf8EBAMC
BeAwPgYDVR0lBDcwNQYIKwYBBQUHAwEGCCsGAQUFBwMCBgorBgEEAYI3CgMDBglg
hkgBhvhCBAEGCCsGAQUFBwMEMB8GA1UdIwQYMBaAFJF3NnsutGnzJ+q39giLSiOi
EUnGMB0GA1UdEQQWMBSCEm5naW54LXZvbXMuZXhhbXBsZTANBgkqhkiG9w0BAQsF
AAOCAQEATxMQAGH1djstQ6uJVUylsxaE3b8YbfNKs2UyCvoUql5hRQX6+DUerbn/
PnC+lJk8BChZTRKIX+Qq5bzrx1lJWbj3eaMv7Jmv6/kFXmgU+7s1oz7XG1XCkaXM
tYgVDDaqJeh2vOWwt6i0r3vJilKuNAdOGFrigyG/EP6MkR+IsA5g6opA3y7VDnAr
B5XVAAI7vrYi/6IwXlKDe7lEzla+3tBVNTXnP0UarZNCZYQt1Ia2XH4G6HaHLi7j
+tZlHgB6pHG+yEoviga/FQJoU5lEzkWO0Olddj+T6VeRLK9WzqQgiF38SUTMeNZO
DuOOG/eBnusVJrqX9sPKbz9fPSOg/Q==
-----END CERTIFICATE-----
