Certificate:
    Data:
        Version: 3 (0x2)
        Serial Number: 2 (0x2)
        Signature Algorithm: sha1WithRSAEncryption
        Issuer: C=IT, O=IGI, CN=Test CA 2
        Validity
            Not Before: Mar 14 16:18:34 2018 GMT
            Not After : Mar 11 16:18:34 2028 GMT
        Subject: C=IT, O=IGI, CN=voms.example
        Subject Public Key Info:
            Public Key Algorithm: rsaEncryption
            RSA Public Key: (2048 bit)
                Modulus (2048 bit):
                    00:ca:0f:d7:c6:91:cc:15:a1:97:32:0b:20:fd:94:
                    11:57:46:59:3a:79:3e:ef:53:ab:9b:28:30:64:da:
                    bc:c5:0b:90:25:67:e5:46:06:2d:cf:dd:42:15:08:
                    f1:1e:ed:8b:e5:c9:cb:3d:cc:4a:77:92:63:af:ac:
                    94:a7:e6:89:06:64:0c:bc:28:52:d1:50:48:02:54:
                    5b:5b:6d:9e:0f:ee:89:f4:01:21:25:ea:ac:af:06:
                    a4:92:ce:32:2f:10:54:f6:37:02:7e:e0:e7:2a:fd:
                    42:92:c8:ff:5c:f1:f2:83:62:9b:d9:7d:f6:08:cb:
                    84:3e:03:26:a3:01:a2:ce:9c:de:d9:37:26:7e:6c:
                    12:50:14:88:47:bc:68:91:6a:f6:d5:05:70:e6:fd:
                    10:05:65:56:45:6f:95:22:d2:d4:55:77:cc:f5:fa:
                    08:a4:36:2c:fa:b2:47:90:6c:c4:84:36:ac:24:f8:
                    d9:a8:99:66:e0:5e:96:34:1e:65:48:86:0f:10:7b:
                    e9:3d:1a:3f:ea:53:9f:70:30:0c:30:93:d3:f9:67:
                    d1:66:7c:a0:40:28:fe:6b:17:72:df:d5:5b:a7:0f:
                    28:bc:92:d1:c8:31:a6:64:e0:d1:c0:1d:f6:dd:b8:
                    03:b1:31:9d:d8:0d:54:56:df:69:35:f1:55:cc:84:
                    52:d1
                Exponent: 65537 (0x10001)
        X509v3 extensions:
            X509v3 Basic Constraints: critical
                CA:FALSE
            X509v3 Subject Key Identifier: 
                5F:FE:E5:D5:AC:A3:6C:F4:19:A8:02:7D:F0:B8:9A:67:D0:A9:A1:1F
            X509v3 Key Usage: critical
                Digital Signature, Non Repudiation, Key Encipherment
            X509v3 Extended Key Usage: 
                TLS Web Server Authentication, TLS Web Client Authentication, Microsoft Server Gated Crypto, Netscape Server Gated Crypto, E-mail Protection
            X509v3 Authority Key Identifier: 
                keyid:37:03:CB:96:42:3A:14:8F:BD:5B:72:2A:EE:F0:6B:A8:6D:4F:8C:44

            X509v3 Subject Alternative Name: 
                DNS:voms.example
    Signature Algorithm: sha1WithRSAEncryption
        d2:75:21:54:90:c6:88:15:25:79:48:6d:d1:ba:5a:c7:58:a4:
        b0:35:5e:30:1a:cf:ba:3f:36:fc:1e:9c:91:ab:54:ca:a8:3e:
        2a:3c:75:44:55:2a:27:de:e7:0f:d8:c8:37:91:b1:65:2a:bf:
        81:37:5a:0f:b4:31:d6:2c:7d:e0:ff:e1:36:c4:cf:d7:b3:a3:
        20:be:7d:bb:26:ae:f6:55:df:68:46:83:4c:90:83:ee:6e:5d:
        16:4c:ab:94:02:61:18:bb:48:e0:78:c3:ce:8e:87:30:cd:82:
        19:8a:6a:d9:90:a4:db:00:fc:ee:fd:b1:c8:f1:0f:08:c6:47:
        78:da:7e:2f:33:f1:8f:16:80:f0:97:a1:72:f9:5a:6e:30:12:
        28:2a:c3:ca:cd:b3:c7:f1:ab:e1:db:b8:16:01:54:b7:5f:9e:
        df:5e:56:25:6e:d4:72:78:a4:5d:c5:ea:92:c0:6b:a6:aa:bd:
        06:73:6f:5f:57:29:38:db:13:f1:7d:51:60:af:21:fe:79:fa:
        a5:8c:cc:12:34:76:32:92:24:9e:9e:6d:51:56:2d:05:28:09:
        9b:ca:d7:8e:f3:22:ea:a5:80:82:6b:83:5e:2a:35:53:67:bc:
        05:5b:ac:0e:24:48:1a:ef:98:96:e5:8a:7f:28:64:1e:ae:ec:
        11:18:66:45
-----BEGIN CERTIFICATE-----
MIIDlzCCAn+gAwIBAgIBAjANBgkqhkiG9w0BAQUFADAvMQswCQYDVQQGEwJJVDEM
MAoGA1UECgwDSUdJMRIwEAYDVQQDDAlUZXN0IENBIDIwHhcNMTgwMzE0MTYxODM0
WhcNMjgwMzExMTYxODM0WjAyMQswCQYDVQQGEwJJVDEMMAoGA1UECgwDSUdJMRUw
EwYDVQQDDAx2b21zLmV4YW1wbGUwggEiMA0GCSqGSIb3DQEBAQUAA4IBDwAwggEK
AoIBAQDKD9fGkcwVoZcyCyD9lBFXRlk6eT7vU6ubKDBk2rzFC5AlZ+VGBi3P3UIV
CPEe7Yvlycs9zEp3kmOvrJSn5okGZAy8KFLRUEgCVFtbbZ4P7on0ASEl6qyvBqSS
zjIvEFT2NwJ+4Ocq/UKSyP9c8fKDYpvZffYIy4Q+AyajAaLOnN7ZNyZ+bBJQFIhH
vGiRavbVBXDm/RAFZVZFb5Ui0tRVd8z1+gikNiz6skeQbMSENqwk+NmomWbgXpY0
HmVIhg8Qe+k9Gj/qU59wMAwwk9P5Z9FmfKBAKP5rF3Lf1VunDyi8ktHIMaZk4NHA
HfbduAOxMZ3YDVRW32k18VXMhFLRAgMBAAGjgbowgbcwDAYDVR0TAQH/BAIwADAd
BgNVHQ4EFgQUX/7l1ayjbPQZqAJ98LiaZ9CpoR8wDgYDVR0PAQH/BAQDAgXgMD4G
A1UdJQQ3MDUGCCsGAQUFBwMBBggrBgEFBQcDAgYKKwYBBAGCNwoDAwYJYIZIAYb4
QgQBBggrBgEFBQcDBDAfBgNVHSMEGDAWgBQ3A8uWQjoUj71bciru8GuobU+MRDAX
BgNVHREEEDAOggx2b21zLmV4YW1wbGUwDQYJKoZIhvcNAQEFBQADggEBANJ1IVSQ
xogVJXlIbdG6WsdYpLA1XjAaz7o/NvwenJGrVMqoPio8dURVKife5w/YyDeRsWUq
v4E3Wg+0MdYsfeD/4TbEz9ezoyC+fbsmrvZV32hGg0yQg+5uXRZMq5QCYRi7SOB4
w86OhzDNghmKatmQpNsA/O79scjxDwjGR3jafi8z8Y8WgPCXoXL5Wm4wEigqw8rN
s8fxq+HbuBYBVLdfnt9eViVu1HJ4pF3F6pLAa6aqvQZzb19XKTjbE/F9UWCvIf55
+qWMzBI0djKSJJ6ebVFWLQUoCZvK147zIuqlgIJrg14qNVNnvAVbrA4kSBrvmJbl
in8oZB6u7BEYZkU=
-----END CERTIFICATE-----
